(lp0
(dp1
S'TRAIT'
p2
(dp3
S'Img'
p4
(lp5
S'png'
p6
assa(dp7
g2
(dp8
S'Name'
p9
(lp10
S'string'
p11
assa(dp12
g2
(dp13
S'Weight_lbs'
p14
(lp15
S'float'
p16
assa(dp17
g2
(dp18
S'Length_ft'
p19
(lp20
S'float'
p21
assa(dp22
g2
(dp23
S'Sharpness'
p24
(lp25
S'float'
p26
assa(dp27
S'ITEM'
p28
(dp29
S'Sword'
p30
(lp31
S'Name'
p32
aS'Img'
p33
aS'Weight_lbs'
p34
aS'Length_ft'
p35
aS'Sharpness'
p36
assa(dp37
S'INSTANCE'
p38
(dp39
S'Sword'
p40
(lp41
S"Isaac's Sword"
p42
aS'9.7'
p43
aS'3.2'
p44
aS'8.0'
p45
assa(dp46
g38
(dp47
S'Sword'
p48
(lp49
S"Bubby's Sword"
p50
aS'7.0'
p51
aS'5.0'
p52
aS'5.0'
p53
assa(dp54
g38
(dp55
S'Sword'
p56
(lp57
S"Reuben's Specail Avacado Sword"
p58
aS'0.5'
p59
aS'4.5'
p60
aS'6.0'
p61
assa.